target datalayout = "e-m:e-p270:32:32-p271:32:32-p272:64:64-i64:64-i128:128-f80:128-n8:16:32:64-S128"
target triple = "x86_64-unknown-linux-gnu"

%"class.net::QuicClientPromisedInfo" = type { %"class.net::QuicClientPushPromiseIndex::TryHandle", ptr, i32, %"class.std::__cxx11::basic_string", %"class.std::unique_ptr", %"class.std::unique_ptr", %"class.std::unique_ptr", ptr, %"class.std::unique_ptr.2" }
%"class.net::QuicClientPushPromiseIndex::TryHandle" = type { ptr }
%"class.std::__cxx11::basic_string" = type { %"struct.std::__cxx11::basic_string<char>::_Alloc_hider", i64, %union.anon }
%"struct.std::__cxx11::basic_string<char>::_Alloc_hider" = type { ptr }
%union.anon = type { i64, [8 x i8] }
%"class.std::unique_ptr" = type { %"struct.std::__uniq_ptr_data" }
%"struct.std::__uniq_ptr_data" = type { %"class.std::__uniq_ptr_impl" }
%"class.std::__uniq_ptr_impl" = type { %"class.std::tuple" }
%"class.std::tuple" = type { %"struct.std::_Tuple_impl" }
%"struct.std::_Tuple_impl" = type { %"struct.std::_Head_base.1" }
%"struct.std::_Head_base.1" = type { ptr }
%"class.std::unique_ptr.2" = type { %"struct.std::__uniq_ptr_data.3" }
%"struct.std::__uniq_ptr_data.3" = type { %"class.std::__uniq_ptr_impl.4" }
%"class.std::__uniq_ptr_impl.4" = type { %"class.std::tuple.5" }
%"class.std::tuple.5" = type { %"struct.std::_Tuple_impl.6" }
%"struct.std::_Tuple_impl.6" = type { %"struct.std::_Head_base.9" }
%"struct.std::_Head_base.9" = type { ptr }
%"class.logging::LogMessageVoidify" = type { i8 }
%"class.logging::LogMessage" = type <{ i32, [4 x i8], %"class.std::__cxx11::basic_ostringstream", i64, ptr, i32, [4 x i8] }>
%"class.std::__cxx11::basic_ostringstream" = type { %"class.std::basic_ostream.base", %"class.std::__cxx11::basic_stringbuf", %"class.std::basic_ios" }
%"class.std::basic_ostream.base" = type { ptr }
%"class.std::__cxx11::basic_stringbuf" = type { %"class.std::basic_streambuf", i32, %"class.std::__cxx11::basic_string" }
%"class.std::basic_streambuf" = type { ptr, ptr, ptr, ptr, ptr, ptr, ptr, %"class.std::locale" }
%"class.std::locale" = type { ptr }
%"class.std::basic_ios" = type { %"class.std::ios_base", ptr, i8, i8, ptr, ptr, ptr, ptr }
%"class.std::ios_base" = type { ptr, i64, i64, i32, i32, i32, ptr, %"struct.std::ios_base::_Words", [8 x %"struct.std::ios_base::_Words"], i32, ptr, %"class.std::locale" }
%"struct.std::ios_base::_Words" = type { ptr, i64 }

@.str.3 = private unnamed_addr constant [140 x i8] c"generated/home/dtcxzyw/WorkSpace/Projects/compilers/llvm-opt-benchmark/bench/libquic/libquic/src/net/quic/core/quic_client_promised_info.cc\00", align 1
@.str.4 = private unnamed_addr constant [24 x i8] c"missing promised stream\00", align 1

; Function Attrs: mustprogress nounwind uwtable
define linkonce_odr dso_local noundef nonnull align 8 dereferenceable(8) ptr @_ZNSt10_Head_baseILm0EPN3net15SpdyHeaderBlockELb0EE7_M_headERKS3_(ptr noundef nonnull align 8 dereferenceable(8) %__b) #1 comdat align 2 {
entry:
  %__b.addr = alloca ptr, align 8
  store ptr %__b, ptr %__b.addr, align 8
  %0 = load ptr, ptr %__b.addr, align 8
  %_M_head_impl = getelementptr inbounds %"struct.std::_Head_base.1", ptr %0, i32 0, i32 0
  ret ptr %_M_head_impl
}

; Function Attrs: mustprogress nounwind uwtable
define linkonce_odr dso_local noundef nonnull align 8 dereferenceable(8) ptr @_ZNSt11_Tuple_implILm0EJPN3net15SpdyHeaderBlockESt14default_deleteIS1_EEE7_M_headERKS5_(ptr noundef nonnull align 8 dereferenceable(8) %__t) #1 comdat align 2 {
entry:
  %__t.addr = alloca ptr, align 8
  store ptr %__t, ptr %__t.addr, align 8
  %0 = load ptr, ptr %__t.addr, align 8
  %call = call noundef nonnull align 8 dereferenceable(8) ptr @_ZNSt10_Head_baseILm0EPN3net15SpdyHeaderBlockELb0EE7_M_headERKS3_(ptr noundef nonnull align 8 dereferenceable(8) %0) #9
  ret ptr %call
}

; Function Attrs: mustprogress nounwind uwtable
define linkonce_odr dso_local noundef nonnull align 8 dereferenceable(8) ptr @_ZSt12__get_helperILm0EPN3net15SpdyHeaderBlockEJSt14default_deleteIS1_EEERKT0_RKSt11_Tuple_implIXT_EJS5_DpT1_EE(ptr noundef nonnull align 8 dereferenceable(8) %__t) #1 comdat {
entry:
  %__t.addr = alloca ptr, align 8
  store ptr %__t, ptr %__t.addr, align 8
  %0 = load ptr, ptr %__t.addr, align 8
  %call = call noundef nonnull align 8 dereferenceable(8) ptr @_ZNSt11_Tuple_implILm0EJPN3net15SpdyHeaderBlockESt14default_deleteIS1_EEE7_M_headERKS5_(ptr noundef nonnull align 8 dereferenceable(8) %0) #9
  ret ptr %call
}

; Function Attrs: mustprogress nounwind uwtable
define linkonce_odr dso_local noundef nonnull align 8 dereferenceable(8) ptr @_ZSt3getILm0EJPN3net15SpdyHeaderBlockESt14default_deleteIS1_EEERKNSt13tuple_elementIXT_ESt5tupleIJDpT0_EEE4typeERKS9_(ptr noundef nonnull align 8 dereferenceable(8) %__t) #1 comdat {
entry:
  %__t.addr = alloca ptr, align 8
  store ptr %__t, ptr %__t.addr, align 8
  %0 = load ptr, ptr %__t.addr, align 8
  %call = call noundef nonnull align 8 dereferenceable(8) ptr @_ZSt12__get_helperILm0EPN3net15SpdyHeaderBlockEJSt14default_deleteIS1_EEERKT0_RKSt11_Tuple_implIXT_EJS5_DpT1_EE(ptr noundef nonnull align 8 dereferenceable(8) %0) #9
  ret ptr %call
}

; Function Attrs: mustprogress nounwind uwtable
define linkonce_odr dso_local noundef ptr @_ZNKSt15__uniq_ptr_implIN3net15SpdyHeaderBlockESt14default_deleteIS1_EE6_M_ptrEv(ptr noundef nonnull align 8 dereferenceable(8) %this) #1 comdat align 2 {
entry:
  %this.addr = alloca ptr, align 8
  store ptr %this, ptr %this.addr, align 8
  %this1 = load ptr, ptr %this.addr, align 8
  %_M_t = getelementptr inbounds %"class.std::__uniq_ptr_impl", ptr %this1, i32 0, i32 0
  %call = call noundef nonnull align 8 dereferenceable(8) ptr @_ZSt3getILm0EJPN3net15SpdyHeaderBlockESt14default_deleteIS1_EEERKNSt13tuple_elementIXT_ESt5tupleIJDpT0_EEE4typeERKS9_(ptr noundef nonnull align 8 dereferenceable(8) %_M_t) #9
  %0 = load ptr, ptr %call, align 8
  ret ptr %0
}

; Function Attrs: mustprogress nounwind uwtable
define linkonce_odr dso_local noundef ptr @_ZNKSt10unique_ptrIN3net15SpdyHeaderBlockESt14default_deleteIS1_EE3getEv(ptr noundef nonnull align 8 dereferenceable(8) %this) #1 comdat align 2 {
entry:
  %this.addr = alloca ptr, align 8
  store ptr %this, ptr %this.addr, align 8
  %this1 = load ptr, ptr %this.addr, align 8
  %_M_t = getelementptr inbounds %"class.std::unique_ptr", ptr %this1, i32 0, i32 0
  %call = call noundef ptr @_ZNKSt15__uniq_ptr_implIN3net15SpdyHeaderBlockESt14default_deleteIS1_EE6_M_ptrEv(ptr noundef nonnull align 8 dereferenceable(8) %_M_t) #9
  ret ptr %call
}

; Function Attrs: mustprogress nounwind uwtable
define linkonce_odr dso_local void @_ZN7logging17LogMessageVoidifyanERSo(ptr noundef nonnull align 1 dereferenceable(1) %this, ptr noundef nonnull align 8 dereferenceable(8) %0) #1 comdat align 2 {
entry:
  %this.addr = alloca ptr, align 8
  %.addr = alloca ptr, align 8
  store ptr %this, ptr %this.addr, align 8
  store ptr %0, ptr %.addr, align 8
  ret void
}

; Function Attrs: mustprogress nounwind uwtable
define linkonce_odr dso_local noundef nonnull align 8 dereferenceable(8) ptr @_ZN7logging10LogMessage6streamEv(ptr noundef nonnull align 8 dereferenceable(404) %this) #1 comdat align 2 {
entry:
  %this.addr = alloca ptr, align 8
  store ptr %this, ptr %this.addr, align 8
  %this1 = load ptr, ptr %this.addr, align 8
  %stream_ = getelementptr inbounds %"class.logging::LogMessage", ptr %this1, i32 0, i32 2
  ret ptr %stream_
}

; Function Attrs: mustprogress nounwind uwtable
define linkonce_odr dso_local void @_ZN7logging17LogMessageVoidifyC2Ev(ptr noundef nonnull align 1 dereferenceable(1) %this) unnamed_addr #1 comdat align 2 {
entry:
  %this.addr = alloca ptr, align 8
  store ptr %this, ptr %this.addr, align 8
  ret void
}

; Function Attrs: mustprogress uwtable
define dso_local void @_ZN3net22QuicClientPromisedInfo5ResetENS_22QuicRstStreamErrorCodeE(ptr noundef nonnull align 8 dereferenceable(96) %this, i32 noundef %error_code) #0 align 2 {
entry:
  %this.addr = alloca ptr, align 8
  %error_code.addr = alloca i32, align 4
  %delegate = alloca ptr, align 8
  store ptr %this, ptr %this.addr, align 8
  store i32 %error_code, ptr %error_code.addr, align 4
  %this1 = load ptr, ptr %this.addr, align 8
  %client_request_delegate_ = getelementptr inbounds %"class.net::QuicClientPromisedInfo", ptr %this1, i32 0, i32 7
  %0 = load ptr, ptr %client_request_delegate_, align 8
  store ptr %0, ptr %delegate, align 8
  %session_ = getelementptr inbounds %"class.net::QuicClientPromisedInfo", ptr %this1, i32 0, i32 1
  %1 = load ptr, ptr %session_, align 8
  %id_ = getelementptr inbounds %"class.net::QuicClientPromisedInfo", ptr %this1, i32 0, i32 2
  %2 = load i32, ptr %id_, align 8
  %3 = load i32, ptr %error_code.addr, align 4
  call void @_ZN3net21QuicClientSessionBase13ResetPromisedEjNS_22QuicRstStreamErrorCodeE(ptr noundef nonnull align 8 dereferenceable(2140) %1, i32 noundef %2, i32 noundef %3)
  %session_2 = getelementptr inbounds %"class.net::QuicClientPromisedInfo", ptr %this1, i32 0, i32 1
  %4 = load ptr, ptr %session_2, align 8
  %vtable = load ptr, ptr %4, align 8
  %vfn = getelementptr inbounds ptr, ptr %vtable, i64 55
  %5 = load ptr, ptr %vfn, align 8
  call void %5(ptr noundef nonnull align 8 dereferenceable(2140) %4, ptr noundef %this1)
  %6 = load ptr, ptr %delegate, align 8
  %tobool = icmp ne ptr %6, null
  br i1 %tobool, label %if.then, label %if.end

if.then:                                          ; preds = %entry
  %7 = load ptr, ptr %delegate, align 8
  %vtable3 = load ptr, ptr %7, align 8
  %vfn4 = getelementptr inbounds ptr, ptr %vtable3, i64 3
  %8 = load ptr, ptr %vfn4, align 8
  call void %8(ptr noundef nonnull align 8 dereferenceable(8) %7, ptr noundef null)
  br label %if.end

if.end:                                           ; preds = %if.then, %entry
  ret void
}

; Function Attrs: mustprogress nounwind uwtable
define linkonce_odr dso_local noundef nonnull align 8 dereferenceable(88) ptr @_ZNKSt10unique_ptrIN3net15SpdyHeaderBlockESt14default_deleteIS1_EEdeEv(ptr noundef nonnull align 8 dereferenceable(8) %this) #1 comdat align 2 {
entry:
  %this.addr = alloca ptr, align 8
  store ptr %this, ptr %this.addr, align 8
  %this1 = load ptr, ptr %this.addr, align 8
  br label %do.body

do.body:                                          ; preds = %entry
  br label %do.cond

do.cond:                                          ; preds = %do.body
  br label %do.end

do.end:                                           ; preds = %do.cond
  %call = call noundef ptr @_ZNKSt10unique_ptrIN3net15SpdyHeaderBlockESt14default_deleteIS1_EE3getEv(ptr noundef nonnull align 8 dereferenceable(8) %this1) #9
  ret ptr %call
}

; Function Attrs: mustprogress uwtable
define dso_local noundef i32 @_ZN3net22QuicClientPromisedInfo15FinalValidationEv(ptr noundef nonnull align 8 dereferenceable(96) %this) #0 align 2 personality ptr @__gxx_personality_v0 {
entry:
  %retval = alloca i32, align 4
  %this.addr = alloca ptr, align 8
  %stream = alloca ptr, align 8
  %ref.tmp = alloca %"class.logging::LogMessageVoidify", align 1
  %ref.tmp8 = alloca %"class.logging::LogMessage", align 8
  %cleanup.cond = alloca i1, align 1
  %exn.slot = alloca ptr, align 8
  %ehselector.slot = alloca i32, align 4
  %delegate = alloca ptr, align 8
  store ptr %this, ptr %this.addr, align 8
  %this1 = load ptr, ptr %this.addr, align 8
  %client_request_delegate_ = getelementptr inbounds %"class.net::QuicClientPromisedInfo", ptr %this1, i32 0, i32 7
  %0 = load ptr, ptr %client_request_delegate_, align 8
  %client_request_headers_ = getelementptr inbounds %"class.net::QuicClientPromisedInfo", ptr %this1, i32 0, i32 6
  %call = call noundef nonnull align 8 dereferenceable(88) ptr @_ZNKSt10unique_ptrIN3net15SpdyHeaderBlockESt14default_deleteIS1_EEdeEv(ptr noundef nonnull align 8 dereferenceable(8) %client_request_headers_) #9
  %request_headers_ = getelementptr inbounds %"class.net::QuicClientPromisedInfo", ptr %this1, i32 0, i32 4
  %call2 = call noundef nonnull align 8 dereferenceable(88) ptr @_ZNKSt10unique_ptrIN3net15SpdyHeaderBlockESt14default_deleteIS1_EEdeEv(ptr noundef nonnull align 8 dereferenceable(8) %request_headers_) #9
  %response_headers_ = getelementptr inbounds %"class.net::QuicClientPromisedInfo", ptr %this1, i32 0, i32 5
  %call3 = call noundef nonnull align 8 dereferenceable(88) ptr @_ZNKSt10unique_ptrIN3net15SpdyHeaderBlockESt14default_deleteIS1_EEdeEv(ptr noundef nonnull align 8 dereferenceable(8) %response_headers_) #9
  %vtable = load ptr, ptr %0, align 8
  %vfn = getelementptr inbounds ptr, ptr %vtable, i64 2
  %1 = load ptr, ptr %vfn, align 8
  %call4 = call noundef zeroext i1 %1(ptr noundef nonnull align 8 dereferenceable(8) %0, ptr noundef nonnull align 8 dereferenceable(88) %call, ptr noundef nonnull align 8 dereferenceable(88) %call2, ptr noundef nonnull align 8 dereferenceable(88) %call3)
  br i1 %call4, label %if.end, label %if.then

if.then:                                          ; preds = %entry
  call void @_ZN3net22QuicClientPromisedInfo5ResetENS_22QuicRstStreamErrorCodeE(ptr noundef nonnull align 8 dereferenceable(96) %this1, i32 noundef 12)
  store i32 1, ptr %retval, align 4
  br label %return

if.end:                                           ; preds = %entry
  %session_ = getelementptr inbounds %"class.net::QuicClientPromisedInfo", ptr %this1, i32 0, i32 1
  %2 = load ptr, ptr %session_, align 8
  %id_ = getelementptr inbounds %"class.net::QuicClientPromisedInfo", ptr %this1, i32 0, i32 2
  %3 = load i32, ptr %id_, align 8
  %call5 = call noundef ptr @_ZN3net21QuicClientSessionBase17GetPromisedStreamEj(ptr noundef nonnull align 8 dereferenceable(2140) %2, i32 noundef %3)
  store ptr %call5, ptr %stream, align 8
  %4 = load ptr, ptr %stream, align 8
  %tobool = icmp ne ptr %4, null
  br i1 %tobool, label %if.end19, label %if.then6

if.then6:                                         ; preds = %if.end
  %call7 = call noundef zeroext i1 @_ZN7logging22ShouldCreateLogMessageEi(i32 noundef 2)
  store i1 false, ptr %cleanup.cond, align 1
  br i1 %call7, label %cond.false, label %cond.true

cond.true:                                        ; preds = %if.then6
  br label %cond.end

cond.false:                                       ; preds = %if.then6
  call void @_ZN7logging17LogMessageVoidifyC2Ev(ptr noundef nonnull align 1 dereferenceable(1) %ref.tmp)
  call void @_ZN7logging10LogMessageC1EPKcii(ptr noundef nonnull align 8 dereferenceable(404) %ref.tmp8, ptr noundef @.str.3, i32 noundef 90, i32 noundef 2)
  store i1 true, ptr %cleanup.cond, align 1
  %call9 = invoke noundef nonnull align 8 dereferenceable(8) ptr @_ZN7logging10LogMessage6streamEv(ptr noundef nonnull align 8 dereferenceable(404) %ref.tmp8)
          to label %invoke.cont unwind label %lpad

invoke.cont:                                      ; preds = %cond.false
  %call11 = invoke noundef nonnull align 8 dereferenceable(8) ptr @_ZStlsISt11char_traitsIcEERSt13basic_ostreamIcT_ES5_PKc(ptr noundef nonnull align 8 dereferenceable(8) %call9, ptr noundef @.str.4)
          to label %invoke.cont10 unwind label %lpad

invoke.cont10:                                    ; preds = %invoke.cont
  %id_12 = getelementptr inbounds %"class.net::QuicClientPromisedInfo", ptr %this1, i32 0, i32 2
  %5 = load i32, ptr %id_12, align 8
  %call14 = invoke noundef nonnull align 8 dereferenceable(8) ptr @_ZNSolsEj(ptr noundef nonnull align 8 dereferenceable(8) %call11, i32 noundef %5)
          to label %invoke.cont13 unwind label %lpad

invoke.cont13:                                    ; preds = %invoke.cont10
  invoke void @_ZN7logging17LogMessageVoidifyanERSo(ptr noundef nonnull align 1 dereferenceable(1) %ref.tmp, ptr noundef nonnull align 8 dereferenceable(8) %call14)
          to label %invoke.cont15 unwind label %lpad

invoke.cont15:                                    ; preds = %invoke.cont13
  br label %cond.end

cond.end:                                         ; preds = %invoke.cont15, %cond.true
  %cleanup.is_active = load i1, ptr %cleanup.cond, align 1
  br i1 %cleanup.is_active, label %cleanup.action, label %cleanup.done

cleanup.action:                                   ; preds = %cond.end
  call void @_ZN7logging10LogMessageD1Ev(ptr noundef nonnull align 8 dereferenceable(404) %ref.tmp8) #9
  br label %cleanup.done

cleanup.done:                                     ; preds = %cleanup.action, %cond.end
  br label %if.end19

lpad:                                             ; preds = %invoke.cont13, %invoke.cont10, %invoke.cont, %cond.false
  %6 = landingpad { ptr, i32 }
          cleanup
  %7 = extractvalue { ptr, i32 } %6, 0
  store ptr %7, ptr %exn.slot, align 8
  %8 = extractvalue { ptr, i32 } %6, 1
  store i32 %8, ptr %ehselector.slot, align 4
  %cleanup.is_active16 = load i1, ptr %cleanup.cond, align 1
  br i1 %cleanup.is_active16, label %cleanup.action17, label %cleanup.done18

cleanup.action17:                                 ; preds = %lpad
  call void @_ZN7logging10LogMessageD1Ev(ptr noundef nonnull align 8 dereferenceable(404) %ref.tmp8) #9
  br label %cleanup.done18

cleanup.done18:                                   ; preds = %cleanup.action17, %lpad
  br label %eh.resume

if.end19:                                         ; preds = %cleanup.done, %if.end
  %client_request_delegate_20 = getelementptr inbounds %"class.net::QuicClientPromisedInfo", ptr %this1, i32 0, i32 7
  %9 = load ptr, ptr %client_request_delegate_20, align 8
  store ptr %9, ptr %delegate, align 8
  %session_21 = getelementptr inbounds %"class.net::QuicClientPromisedInfo", ptr %this1, i32 0, i32 1
  %10 = load ptr, ptr %session_21, align 8
  %vtable22 = load ptr, ptr %10, align 8
  %vfn23 = getelementptr inbounds ptr, ptr %vtable22, i64 55
  %11 = load ptr, ptr %vfn23, align 8
  call void %11(ptr noundef nonnull align 8 dereferenceable(2140) %10, ptr noundef %this1)
  %12 = load ptr, ptr %delegate, align 8
  %tobool24 = icmp ne ptr %12, null
  br i1 %tobool24, label %if.then25, label %if.end28

if.then25:                                        ; preds = %if.end19
  %13 = load ptr, ptr %delegate, align 8
  %14 = load ptr, ptr %stream, align 8
  %vtable26 = load ptr, ptr %13, align 8
  %vfn27 = getelementptr inbounds ptr, ptr %vtable26, i64 3
  %15 = load ptr, ptr %vfn27, align 8
  call void %15(ptr noundef nonnull align 8 dereferenceable(8) %13, ptr noundef %14)
  br label %if.end28

if.end28:                                         ; preds = %if.then25, %if.end19
  store i32 0, ptr %retval, align 4
  br label %return

return:                                           ; preds = %if.end28, %if.then
  %16 = load i32, ptr %retval, align 4
  ret i32 %16

eh.resume:                                        ; preds = %cleanup.done18
  %exn = load ptr, ptr %exn.slot, align 8
  %sel = load i32, ptr %ehselector.slot, align 4
  %lpad.val = insertvalue { ptr, i32 } poison, ptr %exn, 0
  %lpad.val29 = insertvalue { ptr, i32 } %lpad.val, i32 %sel, 1
  resume { ptr, i32 } %lpad.val29
}