; Function Attrs: mustprogress uwtable
define dso_local noundef i32 @_ZN3net22QuicClientPromisedInfo15FinalValidationEv(ptr noundef nonnull align 8 dereferenceable(96) %this) local_unnamed_addr #3 align 2 personality ptr @__gxx_personality_v0 {
entry:
  %ref.tmp8 = alloca %"class.logging::LogMessage", align 8
  %client_request_delegate_ = getelementptr inbounds i8, ptr %this, i64 80
  %0 = load ptr, ptr %client_request_delegate_, align 8
  %client_request_headers_ = getelementptr inbounds i8, ptr %this, i64 72
  %1 = load ptr, ptr %client_request_headers_, align 8
  %request_headers_ = getelementptr inbounds i8, ptr %this, i64 56
  %2 = load ptr, ptr %request_headers_, align 8
  %response_headers_ = getelementptr inbounds i8, ptr %this, i64 64
  %3 = load ptr, ptr %response_headers_, align 8
  %vtable = load ptr, ptr %0, align 8
  %vfn = getelementptr inbounds i8, ptr %vtable, i64 16
  %4 = load ptr, ptr %vfn, align 8
  %call4 = tail call noundef zeroext i1 %4(ptr noundef nonnull align 8 dereferenceable(8) %0, ptr noundef nonnull align 8 dereferenceable(88) %1, ptr noundef nonnull align 8 dereferenceable(88) %2, ptr noundef nonnull align 8 dereferenceable(88) %3)
  br i1 %call4, label %if.end, label %if.then

if.then:                                          ; preds = %entry
  %5 = load ptr, ptr %client_request_delegate_, align 8
  %session_.i = getelementptr inbounds i8, ptr %this, i64 8
  %6 = load ptr, ptr %session_.i, align 8
  %id_.i = getelementptr inbounds i8, ptr %this, i64 16
  %7 = load i32, ptr %id_.i, align 8
  tail call void @_ZN3net21QuicClientSessionBase13ResetPromisedEjNS_22QuicRstStreamErrorCodeE(ptr noundef nonnull align 8 dereferenceable(2140) %6, i32 noundef %7, i32 noundef 12)
  %8 = load ptr, ptr %session_.i, align 8
  %vtable.i = load ptr, ptr %8, align 8
  %vfn.i = getelementptr inbounds i8, ptr %vtable.i, i64 440
  %9 = load ptr, ptr %vfn.i, align 8
  tail call void %9(ptr noundef nonnull align 8 dereferenceable(2140) %8, ptr noundef nonnull %this)
  %tobool.not.i = icmp eq ptr %5, null
  br i1 %tobool.not.i, label %return, label %if.then.i

if.then.i:                                        ; preds = %if.then
  %vtable3.i = load ptr, ptr %5, align 8
  %vfn4.i = getelementptr inbounds i8, ptr %vtable3.i, i64 24
  %10 = load ptr, ptr %vfn4.i, align 8
  tail call void %10(ptr noundef nonnull align 8 dereferenceable(8) %5, ptr noundef null)
  br label %return

if.end:                                           ; preds = %entry
  %session_ = getelementptr inbounds i8, ptr %this, i64 8
  %11 = load ptr, ptr %session_, align 8
  %id_ = getelementptr inbounds i8, ptr %this, i64 16
  %12 = load i32, ptr %id_, align 8
  %call5 = tail call noundef ptr @_ZN3net21QuicClientSessionBase17GetPromisedStreamEj(ptr noundef nonnull align 8 dereferenceable(2140) %11, i32 noundef %12)
  %tobool.not = icmp eq ptr %call5, null
  br i1 %tobool.not, label %if.then6, label %if.end19

if.then6:                                         ; preds = %if.end
  %call7 = tail call noundef zeroext i1 @_ZN7logging22ShouldCreateLogMessageEi(i32 noundef 2)
  br i1 %call7, label %cond.false, label %if.end19

cond.false:                                       ; preds = %if.then6
  call void @_ZN7logging10LogMessageC1EPKcii(ptr noundef nonnull align 8 dereferenceable(404) %ref.tmp8, ptr noundef nonnull @.str.3, i32 noundef 90, i32 noundef 2)
  %stream_.i = getelementptr inbounds i8, ptr %ref.tmp8, i64 8
  %call11 = invoke noundef nonnull align 8 dereferenceable(8) ptr @_ZStlsISt11char_traitsIcEERSt13basic_ostreamIcT_ES5_PKc(ptr noundef nonnull align 8 dereferenceable(8) %stream_.i, ptr noundef nonnull @.str.4)
          to label %invoke.cont10 unwind label %lpad

invoke.cont10:                                    ; preds = %cond.false
  %13 = load i32, ptr %id_, align 8
  %call14 = invoke noundef nonnull align 8 dereferenceable(8) ptr @_ZNSolsEj(ptr noundef nonnull align 8 dereferenceable(8) %call11, i32 noundef %13)
          to label %cleanup.action unwind label %lpad

cleanup.action:                                   ; preds = %invoke.cont10
  call void @_ZN7logging10LogMessageD1Ev(ptr noundef nonnull align 8 dereferenceable(404) %ref.tmp8) #8
  br label %if.end19

lpad:                                             ; preds = %invoke.cont10, %cond.false
  %14 = landingpad { ptr, i32 }
          cleanup
  call void @_ZN7logging10LogMessageD1Ev(ptr noundef nonnull align 8 dereferenceable(404) %ref.tmp8) #8
  resume { ptr, i32 } %14

if.end19:                                         ; preds = %if.then6, %cleanup.action, %if.end
  %15 = load ptr, ptr %client_request_delegate_, align 8
  %16 = load ptr, ptr %session_, align 8
  %vtable22 = load ptr, ptr %16, align 8
  %vfn23 = getelementptr inbounds i8, ptr %vtable22, i64 440
  %17 = load ptr, ptr %vfn23, align 8
  call void %17(ptr noundef nonnull align 8 dereferenceable(2140) %16, ptr noundef nonnull %this)
  %tobool24.not = icmp eq ptr %15, null
  br i1 %tobool24.not, label %return, label %if.then25

if.then25:                                        ; preds = %if.end19
  %vtable26 = load ptr, ptr %15, align 8
  %vfn27 = getelementptr inbounds i8, ptr %vtable26, i64 24
  %18 = load ptr, ptr %vfn27, align 8
  call void %18(ptr noundef nonnull align 8 dereferenceable(8) %15, ptr noundef %call5)
  br label %return

return:                                           ; preds = %if.then.i, %if.then, %if.end19, %if.then25
  %retval.0 = phi i32 [ 0, %if.then25 ], [ 0, %if.end19 ], [ 1, %if.then ], [ 1, %if.then.i ]
  ret i32 %retval.0
}